target datalayout = "e-m:e-p270:32:32-p271:32:32-p272:64:64-i64:64-i128:128-f80:128-n8:16:32:64-S128"
target triple = "x86_64-pc-linux-gnu"

%"class.cv::Size_" = type { i32, i32 }
%"struct.cv::InRange_SIMD.3" = type { i8 }

; Function Attrs: mustprogress nounwind uwtable
define linkonce_odr hidden noundef i32 @_ZNK2cv12InRange_SIMDIiEclEPKiS3_S3_Phi(ptr noundef nonnull align 1 dereferenceable(1) %0, ptr noundef %1, ptr noundef %2, ptr noundef %3, ptr noundef %4, i32 noundef %5) #2 comdat align 2 {
  %7 = alloca ptr, align 8
  %8 = alloca ptr, align 8
  %9 = alloca ptr, align 8
  %10 = alloca ptr, align 8
  %11 = alloca ptr, align 8
  %12 = alloca i32, align 4
  store ptr %0, ptr %7, align 8
  store ptr %1, ptr %8, align 8
  store ptr %2, ptr %9, align 8
  store ptr %3, ptr %10, align 8
  store ptr %4, ptr %11, align 8
  store i32 %5, ptr %12, align 4
  ret i32 0
}

; Function Attrs: mustprogress uwtable
define internal void @_ZN2cvL8inRange_IiEEvPKT_mS3_mS3_mPhmNS_5Size_IiEE(ptr noundef %0, i64 noundef %1, ptr noundef %2, i64 noundef %3, ptr noundef %4, i64 noundef %5, ptr noundef %6, i64 noundef %7, i64 %8) #0 {
  %10 = alloca %"class.cv::Size_", align 4
  %11 = alloca ptr, align 8
  %12 = alloca i64, align 8
  %13 = alloca ptr, align 8
  %14 = alloca i64, align 8
  %15 = alloca ptr, align 8
  %16 = alloca i64, align 8
  %17 = alloca ptr, align 8
  %18 = alloca i64, align 8
  %19 = alloca %"struct.cv::InRange_SIMD.3", align 1
  %20 = alloca i32, align 4
  store i64 %8, ptr %10, align 4
  store ptr %0, ptr %11, align 8
  store i64 %1, ptr %12, align 8
  store ptr %2, ptr %13, align 8
  store i64 %3, ptr %14, align 8
  store ptr %4, ptr %15, align 8
  store i64 %5, ptr %16, align 8
  store ptr %6, ptr %17, align 8
  store i64 %7, ptr %18, align 8
  %21 = load i64, ptr %12, align 8
  %22 = udiv i64 %21, 4
  store i64 %22, ptr %12, align 8
  %23 = load i64, ptr %14, align 8
  %24 = udiv i64 %23, 4
  store i64 %24, ptr %14, align 8
  %25 = load i64, ptr %16, align 8
  %26 = udiv i64 %25, 4
  store i64 %26, ptr %16, align 8
  br label %27

27:                                               ; preds = %82, %9
  %28 = getelementptr inbounds %"class.cv::Size_", ptr %10, i32 0, i32 1
  %29 = load i32, ptr %28, align 4
  %30 = add nsw i32 %29, -1
  store i32 %30, ptr %28, align 4
  %31 = icmp ne i32 %29, 0
  br i1 %31, label %32, label %95

32:                                               ; preds = %27
  %33 = load ptr, ptr %11, align 8
  %34 = load ptr, ptr %13, align 8
  %35 = load ptr, ptr %15, align 8
  %36 = load ptr, ptr %17, align 8
  %37 = getelementptr inbounds %"class.cv::Size_", ptr %10, i32 0, i32 0
  %38 = load i32, ptr %37, align 4
  %39 = call noundef i32 @_ZNK2cv12InRange_SIMDIiEclEPKiS3_S3_Phi(ptr noundef nonnull align 1 dereferenceable(1) %19, ptr noundef %33, ptr noundef %34, ptr noundef %35, ptr noundef %36, i32 noundef %38)
  store i32 %39, ptr %20, align 4
  br label %40

40:                                               ; preds = %78, %32
  %41 = load i32, ptr %20, align 4
  %42 = getelementptr inbounds %"class.cv::Size_", ptr %10, i32 0, i32 0
  %43 = load i32, ptr %42, align 4
  %44 = icmp slt i32 %41, %43
  br i1 %44, label %45, label %81

45:                                               ; preds = %40
  %46 = load ptr, ptr %13, align 8
  %47 = load i32, ptr %20, align 4
  %48 = sext i32 %47 to i64
  %49 = getelementptr inbounds i32, ptr %46, i64 %48
  %50 = load i32, ptr %49, align 4
  %51 = load ptr, ptr %11, align 8
  %52 = load i32, ptr %20, align 4
  %53 = sext i32 %52 to i64
  %54 = getelementptr inbounds i32, ptr %51, i64 %53
  %55 = load i32, ptr %54, align 4
  %56 = icmp sle i32 %50, %55
  br i1 %56, label %57, label %69

57:                                               ; preds = %45
  %58 = load ptr, ptr %11, align 8
  %59 = load i32, ptr %20, align 4
  %60 = sext i32 %59 to i64
  %61 = getelementptr inbounds i32, ptr %58, i64 %60
  %62 = load i32, ptr %61, align 4
  %63 = load ptr, ptr %15, align 8
  %64 = load i32, ptr %20, align 4
  %65 = sext i32 %64 to i64
  %66 = getelementptr inbounds i32, ptr %63, i64 %65
  %67 = load i32, ptr %66, align 4
  %68 = icmp sle i32 %62, %67
  br label %69

69:                                               ; preds = %57, %45
  %70 = phi i1 [ false, %45 ], [ %68, %57 ]
  %71 = zext i1 %70 to i32
  %72 = sub nsw i32 0, %71
  %73 = trunc i32 %72 to i8
  %74 = load ptr, ptr %17, align 8
  %75 = load i32, ptr %20, align 4
  %76 = sext i32 %75 to i64
  %77 = getelementptr inbounds i8, ptr %74, i64 %76
  store i8 %73, ptr %77, align 1
  br label %78

78:                                               ; preds = %69
  %79 = load i32, ptr %20, align 4
  %80 = add nsw i32 %79, 1
  store i32 %80, ptr %20, align 4
  br label %40, !llvm.loop !34

81:                                               ; preds = %40
  br label %82

82:                                               ; preds = %81
  %83 = load i64, ptr %12, align 8
  %84 = load ptr, ptr %11, align 8
  %85 = getelementptr inbounds i32, ptr %84, i64 %83
  store ptr %85, ptr %11, align 8
  %86 = load i64, ptr %14, align 8
  %87 = load ptr, ptr %13, align 8
  %88 = getelementptr inbounds i32, ptr %87, i64 %86
  store ptr %88, ptr %13, align 8
  %89 = load i64, ptr %16, align 8
  %90 = load ptr, ptr %15, align 8
  %91 = getelementptr inbounds i32, ptr %90, i64 %89
  store ptr %91, ptr %15, align 8
  %92 = load i64, ptr %18, align 8
  %93 = load ptr, ptr %17, align 8
  %94 = getelementptr inbounds i8, ptr %93, i64 %92
  store ptr %94, ptr %17, align 8
  br label %27, !llvm.loop !35

95:                                               ; preds = %27
  ret void
}

; Function Attrs: mustprogress uwtable
define internal void @_ZN2cvL10inRange32sEPKimS1_mS1_mPhmNS_5Size_IiEE(ptr noundef %0, i64 noundef %1, ptr noundef %2, i64 noundef %3, ptr noundef %4, i64 noundef %5, ptr noundef %6, i64 noundef %7, i64 %8) #0 {
  %10 = alloca %"class.cv::Size_", align 4
  %11 = alloca ptr, align 8
  %12 = alloca i64, align 8
  %13 = alloca ptr, align 8
  %14 = alloca i64, align 8
  %15 = alloca ptr, align 8
  %16 = alloca i64, align 8
  %17 = alloca ptr, align 8
  %18 = alloca i64, align 8
  %19 = alloca %"class.cv::Size_", align 4
  store i64 %8, ptr %10, align 4
  store ptr %0, ptr %11, align 8
  store i64 %1, ptr %12, align 8
  store ptr %2, ptr %13, align 8
  store i64 %3, ptr %14, align 8
  store ptr %4, ptr %15, align 8
  store i64 %5, ptr %16, align 8
  store ptr %6, ptr %17, align 8
  store i64 %7, ptr %18, align 8
  %20 = load ptr, ptr %11, align 8
  %21 = load i64, ptr %12, align 8
  %22 = load ptr, ptr %13, align 8
  %23 = load i64, ptr %14, align 8
  %24 = load ptr, ptr %15, align 8
  %25 = load i64, ptr %16, align 8
  %26 = load ptr, ptr %17, align 8
  %27 = load i64, ptr %18, align 8
  call void @llvm.memcpy.p0.p0.i64(ptr align 4 %19, ptr align 4 %10, i64 8, i1 false)
  %28 = load i64, ptr %19, align 4
  call void @_ZN2cvL8inRange_IiEEvPKT_mS3_mS3_mPhmNS_5Size_IiEE(ptr noundef %20, i64 noundef %21, ptr noundef %22, i64 noundef %23, ptr noundef %24, i64 noundef %25, ptr noundef %26, i64 noundef %27, i64 %28)
  ret void
}